(dp0
S'AND'
p1
(dp2
S'Divide'
p3
F1.0
sS'HOUR'
p4
I0
sS'SUM'
p5
I0
sS'VLOOKUP'
p6
F1.0
sS'Minus'
p7
I0
sS'SECOND'
p8
I0
sS'ABS'
p9
I0
sS'Plus'
p10
F0.1328404601896418
sS'TIME'
p11
I0
sS'Multiply'
p12
F0.7301715172097242
sS'COUNTIF'
p13
F1.0
sS'NOW'
p14
F1.0
sS'ROUND'
p15
F1.0
sS'MINUTE'
p16
I0
sS'IF'
p17
F0.9804088134904109
ssg3
(dp18
g1
F1.0
sg4
I0
sg5
I0
sg6
F1.0
sg7
I0
sg8
I0
sg9
I0
sg10
F0.1328404601896418
sg11
I0
sg12
F0.7301715172097242
sg13
F1.0
sg14
F1.0
sg15
F1.0
sg16
I0
sg17
F0.9804088134904109
ssg4
(dp19
g1
I0
sg3
I0
sg5
I0
sg6
I0
sg7
F0.4937357454164382
sg8
F1.0
sg9
F1.0
sg10
F0.9911374335260493
sg11
F1.0
sg12
F0.6832638988382522
sg13
I0
sg14
I0
sg15
I0
sg16
F1.0
sg17
F0.1969734967713284
ssg5
(dp20
g1
I0
sg3
I0
sg4
I0
sg6
I0
sg7
I0
sg8
I0
sg9
I0
sg10
I0
sg11
I0
sg12
I0
sg13
I0
sg14
I0
sg15
I0
sg16
I0
sg17
I0
ssg6
(dp21
g1
F1.0
sg3
F1.0
sg4
I0
sg5
I0
sg7
I0
sg8
I0
sg9
I0
sg10
F0.1328404601896418
sg11
I0
sg12
F0.7301715172097241
sg13
F1.0
sg14
F1.0
sg15
F1.0
sg16
I0
sg17
F0.9804088134904109
ssg7
(dp22
g1
I0
sg3
I0
sg4
F0.4937357454164382
sg5
I0
sg6
I0
sg8
F0.4937357454164382
sg9
F0.4937357454164382
sg10
F0.4893599795521195
sg11
F0.4937357454164382
sg12
F0.3373518104090462
sg13
I0
sg14
I0
sg15
I0
sg16
F0.4937357454164382
sg17
F0.0972528562556742
ssg8
(dp23
g1
I0
sg3
I0
sg4
F1.0
sg5
I0
sg6
I0
sg7
F0.4937357454164382
sg9
F1.0
sg10
F0.9911374335260493
sg11
F1.0
sg12
F0.6832638988382522
sg13
I0
sg14
I0
sg15
I0
sg16
F1.0
sg17
F0.1969734967713284
ssg9
(dp24
g1
I0
sg3
I0
sg4
F1.0
sg5
I0
sg6
I0
sg7
F0.4937357454164382
sg8
F1.0
sg13
I0
sg10
F0.9911374335260493
sg11
F1.0
sg12
F0.6832638988382522
sg14
I0
sg15
I0
sg16
F1.0
sg17
F0.1969734967713284
ssg10
(dp25
g1
F0.1328404601896418
sg3
F0.1328404601896418
sg4
F0.9911374335260493
sg5
I0
sg6
F0.1328404601896418
sg7
F0.4893599795521195
sg8
F0.9911374335260493
sg9
F0.9911374335260493
sg13
F0.1328404601896418
sg11
F0.9911374335260493
sg12
F0.7742047474790562
sg14
F0.1328404601896418
sg15
F0.1328404601896418
sg16
F0.9911374335260493
sg17
F0.32546576402063293
ssg11
(dp26
g1
I0
sg3
I0
sg4
F1.0
sg5
I0
sg6
I0
sg7
F0.4937357454164382
sg8
F1.0
sg9
F1.0
sg10
F0.9911374335260493
sg12
F0.6832638988382522
sg13
I0
sg14
I0
sg15
I0
sg16
F1.0
sg17
F0.1969734967713284
ssg12
(dp27
g1
F0.7301715172097242
sg3
F0.7301715172097242
sg4
F0.6832638988382522
sg5
I0
sg6
F0.7301715172097241
sg7
F0.3373518104090462
sg8
F0.6832638988382522
sg9
F0.6832638988382522
sg10
F0.7742047474790562
sg11
F0.6832638988382522
sg13
F0.7301715172097243
sg14
F0.7301715172097242
sg15
F0.7301715172097242
sg16
F0.6832638988382522
sg17
F0.8504514702038607
ssg13
(dp28
g1
F1.0
sg3
F1.0
sg4
I0
sg5
I0
sg6
F1.0
sg7
I0
sg8
I0
sg9
I0
sg10
F0.1328404601896418
sg11
I0
sg12
F0.7301715172097243
sg14
F1.0
sg15
F1.0
sg16
I0
sg17
F0.9804088134904111
ssg14
(dp29
g1
F1.0
sg3
F1.0
sg4
I0
sg5
I0
sg6
F1.0
sg7
I0
sg8
I0
sg9
I0
sg10
F0.1328404601896418
sg11
I0
sg12
F0.7301715172097242
sg13
F1.0
sg15
F1.0
sg16
I0
sg17
F0.9804088134904111
ssg15
(dp30
g1
F1.0
sg3
F1.0
sg4
I0
sg5
I0
sg6
F1.0
sg8
I0
sg9
I0
sg10
F0.1328404601896418
sg11
I0
sg12
F0.7301715172097242
sg13
F1.0
sg14
F1.0
sg7
I0
sg16
I0
sg17
F0.9804088134904109
ssg16
(dp31
g1
I0
sg3
I0
sg4
F1.0
sg5
I0
sg6
I0
sg7
F0.4937357454164382
sg8
F1.0
sg9
F1.0
sg10
F0.9911374335260493
sg11
F1.0
sg12
F0.6832638988382522
sg13
I0
sg14
I0
sg15
I0
sg17
F0.1969734967713284
ssg17
(dp32
g1
F0.9804088134904109
sg3
F0.9804088134904109
sg4
F0.1969734967713284
sg5
I0
sg6
F0.9804088134904109
sg7
F0.0972528562556742
sg8
F0.1969734967713284
sg9
F0.1969734967713284
sg10
F0.32546576402063293
sg11
F0.1969734967713284
sg12
F0.8504514702038607
sg13
F0.9804088134904111
sg14
F0.9804088134904111
sg15
F0.9804088134904109
sg16
F0.1969734967713284
ss.